; Function Attrs: mustprogress uwtable
define noundef zeroext i1 @_ZNK9pymeshlab17FunctionParametereqERKS0_(ptr nocapture noundef nonnull readonly align 8 dereferenceable(16) %0, ptr nocapture noundef nonnull readonly align 8 dereferenceable(16) %1) local_unnamed_addr #6 align 2 personality ptr @__gxx_personality_v0 {
  %3 = alloca %class.QString, align 8
  %4 = alloca %class.QString, align 8
  %5 = getelementptr inbounds i8, ptr %0, i64 8
  %6 = load ptr, ptr %5, align 8
  call void @_ZNK13RichParameter10pythonNameEv(ptr dead_on_unwind nonnull writable sret(%class.QString) align 8 %3, ptr noundef nonnull align 8 dereferenceable(56) %6)
  %7 = getelementptr inbounds i8, ptr %1, i64 8
  %8 = load ptr, ptr %7, align 8
  invoke void @_ZNK13RichParameter10pythonNameEv(ptr dead_on_unwind nonnull writable sret(%class.QString) align 8 %4, ptr noundef nonnull align 8 dereferenceable(56) %8)
          to label %9 unwind label %19

9:                                                ; preds = %2
  %10 = call noundef zeroext i1 @_ZeqRK7QStringS1_(ptr noundef nonnull align 8 dereferenceable(8) %3, ptr noundef nonnull align 8 dereferenceable(8) %4) #15
  %11 = load ptr, ptr %4, align 8
  %12 = load atomic i32, ptr %11 monotonic, align 4
  switch i32 %12, label %_ZN9QtPrivate8RefCount5derefEv.exit.i [
    i32 0, label %_ZN9QtPrivate8RefCount5derefEv.exit.thread2.i
    i32 -1, label %_ZN7QStringD2Ev.exit
  ]

_ZN9QtPrivate8RefCount5derefEv.exit.i:            ; preds = %9
  %13 = atomicrmw sub ptr %11, i32 1 seq_cst, align 4
  %.not.i = icmp eq i32 %13, 1
  br i1 %.not.i, label %_ZN9QtPrivate8RefCount5derefEv.exit._ZN9QtPrivate8RefCount5derefEv.exit.thread2_crit_edge.i, label %_ZN7QStringD2Ev.exit

_ZN9QtPrivate8RefCount5derefEv.exit._ZN9QtPrivate8RefCount5derefEv.exit.thread2_crit_edge.i: ; preds = %_ZN9QtPrivate8RefCount5derefEv.exit.i
  %.pre.i = load ptr, ptr %4, align 8
  br label %_ZN9QtPrivate8RefCount5derefEv.exit.thread2.i

_ZN9QtPrivate8RefCount5derefEv.exit.thread2.i:    ; preds = %_ZN9QtPrivate8RefCount5derefEv.exit._ZN9QtPrivate8RefCount5derefEv.exit.thread2_crit_edge.i, %9
  %14 = phi ptr [ %.pre.i, %_ZN9QtPrivate8RefCount5derefEv.exit._ZN9QtPrivate8RefCount5derefEv.exit.thread2_crit_edge.i ], [ %11, %9 ]
  call void @_ZN10QArrayData10deallocateEPS_mm(ptr noundef %14, i64 noundef 2, i64 noundef 8) #15
  br label %_ZN7QStringD2Ev.exit

_ZN7QStringD2Ev.exit:                             ; preds = %9, %_ZN9QtPrivate8RefCount5derefEv.exit.i, %_ZN9QtPrivate8RefCount5derefEv.exit.thread2.i
  %15 = load ptr, ptr %3, align 8
  %16 = load atomic i32, ptr %15 monotonic, align 4
  switch i32 %16, label %_ZN9QtPrivate8RefCount5derefEv.exit.i4 [
    i32 0, label %_ZN9QtPrivate8RefCount5derefEv.exit.thread2.i3
    i32 -1, label %_ZN7QStringD2Ev.exit8
  ]

_ZN9QtPrivate8RefCount5derefEv.exit.i4:           ; preds = %_ZN7QStringD2Ev.exit
  %17 = atomicrmw sub ptr %15, i32 1 seq_cst, align 4
  %.not.i5 = icmp eq i32 %17, 1
  br i1 %.not.i5, label %_ZN9QtPrivate8RefCount5derefEv.exit._ZN9QtPrivate8RefCount5derefEv.exit.thread2_crit_edge.i6, label %_ZN7QStringD2Ev.exit8

_ZN9QtPrivate8RefCount5derefEv.exit._ZN9QtPrivate8RefCount5derefEv.exit.thread2_crit_edge.i6: ; preds = %_ZN9QtPrivate8RefCount5derefEv.exit.i4
  %.pre.i7 = load ptr, ptr %3, align 8
  br label %_ZN9QtPrivate8RefCount5derefEv.exit.thread2.i3

_ZN9QtPrivate8RefCount5derefEv.exit.thread2.i3:   ; preds = %_ZN9QtPrivate8RefCount5derefEv.exit._ZN9QtPrivate8RefCount5derefEv.exit.thread2_crit_edge.i6, %_ZN7QStringD2Ev.exit
  %18 = phi ptr [ %.pre.i7, %_ZN9QtPrivate8RefCount5derefEv.exit._ZN9QtPrivate8RefCount5derefEv.exit.thread2_crit_edge.i6 ], [ %15, %_ZN7QStringD2Ev.exit ]
  call void @_ZN10QArrayData10deallocateEPS_mm(ptr noundef %18, i64 noundef 2, i64 noundef 8) #15
  br label %_ZN7QStringD2Ev.exit8

_ZN7QStringD2Ev.exit8:                            ; preds = %_ZN7QStringD2Ev.exit, %_ZN9QtPrivate8RefCount5derefEv.exit.i4, %_ZN9QtPrivate8RefCount5derefEv.exit.thread2.i3
  ret i1 %10

19:                                               ; preds = %2
  %20 = landingpad { ptr, i32 }
          cleanup
  call void @_ZN7QStringD2Ev(ptr noundef nonnull align 8 dereferenceable(8) %3) #15
  resume { ptr, i32 } %20
}